; ModuleID = '14/834.c'
source_filename = "14/834.c"
target datalayout = "e-m:e-p270:32:32-p271:32:32-p272:64:64-i64:64-f80:128-n8:16:32:64-S128"
target triple = "x86_64-pc-linux-gnu"

%struct.student = type { i32, i32, i32, i32, %struct.student* }

@.str = private unnamed_addr constant [3 x i8] c"%d\00", align 1
@.str.1 = private unnamed_addr constant [7 x i8] c"%d%d%d\00", align 1
@.str.2 = private unnamed_addr constant [7 x i8] c"%d %d\0A\00", align 1

; Function Attrs: noinline nounwind uwtable
define dso_local void @main() #0 {
  %1 = alloca i32, align 4
  %2 = alloca i32, align 4
  %3 = alloca %struct.student*, align 8
  %4 = alloca %struct.student*, align 8
  %5 = alloca %struct.student*, align 8
  %6 = alloca i32, align 4
  %7 = alloca i32*, align 8
  %8 = alloca i32*, align 8
  %9 = call i32 (i8*, ...) @__isoc99_scanf(i8* getelementptr inbounds ([3 x i8], [3 x i8]* @.str, i64 0, i64 0), i32* %1)
  %10 = call noalias i8* @malloc(i64 100) #3
  %11 = bitcast i8* %10 to %struct.student*
  store %struct.student* %11, %struct.student** %4, align 8
  store %struct.student* %11, %struct.student** %3, align 8
  store %struct.student* %11, %struct.student** %5, align 8
  %12 = load %struct.student*, %struct.student** %3, align 8
  %13 = getelementptr inbounds %struct.student, %struct.student* %12, i32 0, i32 0
  %14 = load %struct.student*, %struct.student** %3, align 8
  %15 = getelementptr inbounds %struct.student, %struct.student* %14, i32 0, i32 1
  %16 = load %struct.student*, %struct.student** %3, align 8
  %17 = getelementptr inbounds %struct.student, %struct.student* %16, i32 0, i32 2
  %18 = call i32 (i8*, ...) @__isoc99_scanf(i8* getelementptr inbounds ([7 x i8], [7 x i8]* @.str.1, i64 0, i64 0), i32* %13, i32* %15, i32* %17)
  %19 = load %struct.student*, %struct.student** %3, align 8
  %20 = getelementptr inbounds %struct.student, %struct.student* %19, i32 0, i32 1
  %21 = load i32, i32* %20, align 4
  %22 = load %struct.student*, %struct.student** %3, align 8
  %23 = getelementptr inbounds %struct.student, %struct.student* %22, i32 0, i32 2
  %24 = load i32, i32* %23, align 8
  %25 = add nsw i32 %21, %24
  %26 = load %struct.student*, %struct.student** %3, align 8
  %27 = getelementptr inbounds %struct.student, %struct.student* %26, i32 0, i32 3
  store i32 %25, i32* %27, align 4
  store i32 1, i32* %2, align 4
  br label %28

28:                                               ; preds = %56, %0
  %29 = load i32, i32* %2, align 4
  %30 = load i32, i32* %1, align 4
  %31 = sub nsw i32 %30, 1
  %32 = icmp slt i32 %29, %31
  br i1 %32, label %33, label %59

33:                                               ; preds = %28
  %34 = call noalias i8* @malloc(i64 100) #3
  %35 = bitcast i8* %34 to %struct.student*
  store %struct.student* %35, %struct.student** %3, align 8
  %36 = load %struct.student*, %struct.student** %3, align 8
  %37 = getelementptr inbounds %struct.student, %struct.student* %36, i32 0, i32 0
  %38 = load %struct.student*, %struct.student** %3, align 8
  %39 = getelementptr inbounds %struct.student, %struct.student* %38, i32 0, i32 1
  %40 = load %struct.student*, %struct.student** %3, align 8
  %41 = getelementptr inbounds %struct.student, %struct.student* %40, i32 0, i32 2
  %42 = call i32 (i8*, ...) @__isoc99_scanf(i8* getelementptr inbounds ([7 x i8], [7 x i8]* @.str.1, i64 0, i64 0), i32* %37, i32* %39, i32* %41)
  %43 = load %struct.student*, %struct.student** %3, align 8
  %44 = getelementptr inbounds %struct.student, %struct.student* %43, i32 0, i32 1
  %45 = load i32, i32* %44, align 4
  %46 = load %struct.student*, %struct.student** %3, align 8
  %47 = getelementptr inbounds %struct.student, %struct.student* %46, i32 0, i32 2
  %48 = load i32, i32* %47, align 8
  %49 = add nsw i32 %45, %48
  %50 = load %struct.student*, %struct.student** %3, align 8
  %51 = getelementptr inbounds %struct.student, %struct.student* %50, i32 0, i32 3
  store i32 %49, i32* %51, align 4
  %52 = load %struct.student*, %struct.student** %3, align 8
  %53 = load %struct.student*, %struct.student** %4, align 8
  %54 = getelementptr inbounds %struct.student, %struct.student* %53, i32 0, i32 4
  store %struct.student* %52, %struct.student** %54, align 8
  %55 = load %struct.student*, %struct.student** %3, align 8
  store %struct.student* %55, %struct.student** %4, align 8
  br label %56

56:                                               ; preds = %33
  %57 = load i32, i32* %2, align 4
  %58 = add nsw i32 %57, 1
  store i32 %58, i32* %2, align 4
  br label %28

59:                                               ; preds = %28
  %60 = load %struct.student*, %struct.student** %3, align 8
  %61 = getelementptr inbounds %struct.student, %struct.student* %60, i32 0, i32 0
  %62 = load %struct.student*, %struct.student** %3, align 8
  %63 = getelementptr inbounds %struct.student, %struct.student* %62, i32 0, i32 1
  %64 = load %struct.student*, %struct.student** %3, align 8
  %65 = getelementptr inbounds %struct.student, %struct.student* %64, i32 0, i32 2
  %66 = call i32 (i8*, ...) @__isoc99_scanf(i8* getelementptr inbounds ([7 x i8], [7 x i8]* @.str.1, i64 0, i64 0), i32* %61, i32* %63, i32* %65)
  %67 = load %struct.student*, %struct.student** %3, align 8
  %68 = getelementptr inbounds %struct.student, %struct.student* %67, i32 0, i32 1
  %69 = load i32, i32* %68, align 4
  %70 = load %struct.student*, %struct.student** %3, align 8
  %71 = getelementptr inbounds %struct.student, %struct.student* %70, i32 0, i32 2
  %72 = load i32, i32* %71, align 8
  %73 = add nsw i32 %69, %72
  %74 = load %struct.student*, %struct.student** %3, align 8
  %75 = getelementptr inbounds %struct.student, %struct.student* %74, i32 0, i32 3
  store i32 %73, i32* %75, align 4
  %76 = load %struct.student*, %struct.student** %3, align 8
  %77 = getelementptr inbounds %struct.student, %struct.student* %76, i32 0, i32 4
  store %struct.student* null, %struct.student** %77, align 8
  store i32 0, i32* %2, align 4
  br label %78

78:                                               ; preds = %119, %59
  %79 = load i32, i32* %2, align 4
  %80 = icmp slt i32 %79, 3
  br i1 %80, label %81, label %122

81:                                               ; preds = %78
  %82 = load %struct.student*, %struct.student** %5, align 8
  store %struct.student* %82, %struct.student** %3, align 8
  %83 = load %struct.student*, %struct.student** %3, align 8
  %84 = getelementptr inbounds %struct.student, %struct.student* %83, i32 0, i32 3
  %85 = load i32, i32* %84, align 4
  store i32 %85, i32* %6, align 4
  %86 = load %struct.student*, %struct.student** %3, align 8
  %87 = getelementptr inbounds %struct.student, %struct.student* %86, i32 0, i32 0
  store i32* %87, i32** %7, align 8
  %88 = load %struct.student*, %struct.student** %3, align 8
  %89 = getelementptr inbounds %struct.student, %struct.student* %88, i32 0, i32 3
  store i32* %89, i32** %8, align 8
  br label %90

90:                                               ; preds = %112, %81
  %91 = load %struct.student*, %struct.student** %3, align 8
  %92 = getelementptr inbounds %struct.student, %struct.student* %91, i32 0, i32 4
  %93 = load %struct.student*, %struct.student** %92, align 8
  %94 = icmp ne %struct.student* %93, null
  br i1 %94, label %95, label %113

95:                                               ; preds = %90
  %96 = load %struct.student*, %struct.student** %3, align 8
  %97 = getelementptr inbounds %struct.student, %struct.student* %96, i32 0, i32 4
  %98 = load %struct.student*, %struct.student** %97, align 8
  store %struct.student* %98, %struct.student** %3, align 8
  %99 = load %struct.student*, %struct.student** %3, align 8
  %100 = getelementptr inbounds %struct.student, %struct.student* %99, i32 0, i32 3
  %101 = load i32, i32* %100, align 4
  %102 = load i32, i32* %6, align 4
  %103 = icmp sgt i32 %101, %102
  br i1 %103, label %104, label %112

104:                                              ; preds = %95
  %105 = load %struct.student*, %struct.student** %3, align 8
  %106 = getelementptr inbounds %struct.student, %struct.student* %105, i32 0, i32 3
  %107 = load i32, i32* %106, align 4
  store i32 %107, i32* %6, align 4
  %108 = load %struct.student*, %struct.student** %3, align 8
  %109 = getelementptr inbounds %struct.student, %struct.student* %108, i32 0, i32 0
  store i32* %109, i32** %7, align 8
  %110 = load %struct.student*, %struct.student** %3, align 8
  %111 = getelementptr inbounds %struct.student, %struct.student* %110, i32 0, i32 3
  store i32* %111, i32** %8, align 8
  br label %112

112:                                              ; preds = %104, %95
  br label %90

113:                                              ; preds = %90
  %114 = load i32*, i32** %7, align 8
  %115 = load i32, i32* %114, align 4
  %116 = load i32, i32* %6, align 4
  %117 = call i32 (i8*, ...) @printf(i8* getelementptr inbounds ([7 x i8], [7 x i8]* @.str.2, i64 0, i64 0), i32 %115, i32 %116)
  %118 = load i32*, i32** %8, align 8
  store i32 0, i32* %118, align 4
  br label %119

119:                                              ; preds = %113
  %120 = load i32, i32* %2, align 4
  %121 = add nsw i32 %120, 1
  store i32 %121, i32* %2, align 4
  br label %78

122:                                              ; preds = %78
  ret void
}

declare dso_local i32 @__isoc99_scanf(i8*, ...) #1

; Function Attrs: nounwind
declare dso_local noalias i8* @malloc(i64) #2

declare dso_local i32 @printf(i8*, ...) #1


!llvm.module.flags = !{!0}
!llvm.ident = !{!1}

!0 = !{i32 1, !"wchar_size", i32 4}
!1 = !{!"clang version 10.0.0-4ubuntu1 "}
